; ModuleID = '31/1579.c'
source_filename = "31/1579.c"
target datalayout = "e-m:e-p270:32:32-p271:32:32-p272:64:64-i64:64-f80:128-n8:16:32:64-S128"
target triple = "x86_64-pc-linux-gnu"

%struct.stu = type { [100 x i8], %struct.stu* }

@.str = private unnamed_addr constant [4 x i8] c"end\00", align 1
@.str.1 = private unnamed_addr constant [4 x i8] c"%s\0A\00", align 1

; Function Attrs: noinline nounwind uwtable
define dso_local void @main() #0 {
  %1 = alloca i32, align 4
  %2 = alloca i32, align 4
  %3 = alloca %struct.stu*, align 8
  %4 = alloca %struct.stu*, align 8
  %5 = alloca %struct.stu*, align 8
  %6 = alloca %struct.stu*, align 8
  %7 = alloca %struct.stu*, align 8
  store i32 1, i32* %1, align 4
  %8 = call noalias i8* @malloc(i64 112) #4
  %9 = bitcast i8* %8 to %struct.stu*
  store %struct.stu* %9, %struct.stu** %5, align 8
  store %struct.stu* %9, %struct.stu** %4, align 8
  store %struct.stu* %9, %struct.stu** %3, align 8
  %10 = load %struct.stu*, %struct.stu** %3, align 8
  %11 = getelementptr inbounds %struct.stu, %struct.stu* %10, i32 0, i32 0
  %12 = getelementptr inbounds [100 x i8], [100 x i8]* %11, i64 0, i64 0
  %13 = call i32 (i8*, ...) bitcast (i32 (...)* @gets to i32 (i8*, ...)*)(i8* %12)
  br label %14

14:                                               ; preds = %42, %0
  %15 = load %struct.stu*, %struct.stu** %3, align 8
  %16 = getelementptr inbounds %struct.stu, %struct.stu* %15, i32 0, i32 0
  %17 = getelementptr inbounds [100 x i8], [100 x i8]* %16, i64 0, i64 0
  %18 = call i32 @strcmp(i8* %17, i8* getelementptr inbounds ([4 x i8], [4 x i8]* @.str, i64 0, i64 0)) #5
  %19 = icmp ne i32 %18, 0
  br i1 %19, label %20, label %43

20:                                               ; preds = %14
  %21 = call noalias i8* @malloc(i64 112) #4
  %22 = bitcast i8* %21 to %struct.stu*
  store %struct.stu* %22, %struct.stu** %3, align 8
  %23 = load %struct.stu*, %struct.stu** %3, align 8
  %24 = getelementptr inbounds %struct.stu, %struct.stu* %23, i32 0, i32 0
  %25 = getelementptr inbounds [100 x i8], [100 x i8]* %24, i64 0, i64 0
  %26 = call i32 (i8*, ...) bitcast (i32 (...)* @gets to i32 (i8*, ...)*)(i8* %25)
  %27 = load %struct.stu*, %struct.stu** %3, align 8
  %28 = getelementptr inbounds %struct.stu, %struct.stu* %27, i32 0, i32 0
  %29 = getelementptr inbounds [100 x i8], [100 x i8]* %28, i64 0, i64 0
  %30 = call i32 @strcmp(i8* %29, i8* getelementptr inbounds ([4 x i8], [4 x i8]* @.str, i64 0, i64 0)) #5
  %31 = icmp eq i32 %30, 0
  br i1 %31, label %32, label %35

32:                                               ; preds = %20
  %33 = load %struct.stu*, %struct.stu** %4, align 8
  %34 = getelementptr inbounds %struct.stu, %struct.stu* %33, i32 0, i32 1
  store %struct.stu* null, %struct.stu** %34, align 8
  br label %42

35:                                               ; preds = %20
  %36 = load %struct.stu*, %struct.stu** %3, align 8
  %37 = load %struct.stu*, %struct.stu** %4, align 8
  %38 = getelementptr inbounds %struct.stu, %struct.stu* %37, i32 0, i32 1
  store %struct.stu* %36, %struct.stu** %38, align 8
  %39 = load %struct.stu*, %struct.stu** %3, align 8
  store %struct.stu* %39, %struct.stu** %4, align 8
  %40 = load i32, i32* %1, align 4
  %41 = add nsw i32 %40, 1
  store i32 %41, i32* %1, align 4
  br label %42

42:                                               ; preds = %35, %32
  br label %14

43:                                               ; preds = %14
  %44 = load %struct.stu*, %struct.stu** %5, align 8
  store %struct.stu* %44, %struct.stu** %3, align 8
  store i32 0, i32* %2, align 4
  br label %45

45:                                               ; preds = %73, %43
  %46 = load i32, i32* %2, align 4
  %47 = load i32, i32* %1, align 4
  %48 = icmp slt i32 %46, %47
  br i1 %48, label %49, label %76

49:                                               ; preds = %45
  %50 = load %struct.stu*, %struct.stu** %5, align 8
  store %struct.stu* %50, %struct.stu** %3, align 8
  store %struct.stu* %50, %struct.stu** %4, align 8
  br label %51

51:                                               ; preds = %56, %49
  %52 = load %struct.stu*, %struct.stu** %3, align 8
  %53 = getelementptr inbounds %struct.stu, %struct.stu* %52, i32 0, i32 1
  %54 = load %struct.stu*, %struct.stu** %53, align 8
  %55 = icmp ne %struct.stu* %54, null
  br i1 %55, label %56, label %61

56:                                               ; preds = %51
  %57 = load %struct.stu*, %struct.stu** %3, align 8
  store %struct.stu* %57, %struct.stu** %4, align 8
  %58 = load %struct.stu*, %struct.stu** %3, align 8
  %59 = getelementptr inbounds %struct.stu, %struct.stu* %58, i32 0, i32 1
  %60 = load %struct.stu*, %struct.stu** %59, align 8
  store %struct.stu* %60, %struct.stu** %3, align 8
  br label %51

61:                                               ; preds = %51
  %62 = load i32, i32* %2, align 4
  %63 = icmp eq i32 %62, 0
  br i1 %63, label %64, label %66

64:                                               ; preds = %61
  %65 = load %struct.stu*, %struct.stu** %3, align 8
  store %struct.stu* %65, %struct.stu** %6, align 8
  store %struct.stu* %65, %struct.stu** %7, align 8
  br label %70

66:                                               ; preds = %61
  %67 = load %struct.stu*, %struct.stu** %3, align 8
  %68 = load %struct.stu*, %struct.stu** %6, align 8
  %69 = getelementptr inbounds %struct.stu, %struct.stu* %68, i32 0, i32 1
  store %struct.stu* %67, %struct.stu** %69, align 8
  store %struct.stu* %67, %struct.stu** %6, align 8
  br label %70

70:                                               ; preds = %66, %64
  %71 = load %struct.stu*, %struct.stu** %4, align 8
  %72 = getelementptr inbounds %struct.stu, %struct.stu* %71, i32 0, i32 1
  store %struct.stu* null, %struct.stu** %72, align 8
  br label %73

73:                                               ; preds = %70
  %74 = load i32, i32* %2, align 4
  %75 = add nsw i32 %74, 1
  store i32 %75, i32* %2, align 4
  br label %45

76:                                               ; preds = %45
  %77 = load %struct.stu*, %struct.stu** %7, align 8
  store %struct.stu* %77, %struct.stu** %3, align 8
  store i32 0, i32* %2, align 4
  br label %78

78:                                               ; preds = %90, %76
  %79 = load i32, i32* %2, align 4
  %80 = load i32, i32* %1, align 4
  %81 = icmp slt i32 %79, %80
  br i1 %81, label %82, label %93

82:                                               ; preds = %78
  %83 = load %struct.stu*, %struct.stu** %3, align 8
  %84 = getelementptr inbounds %struct.stu, %struct.stu* %83, i32 0, i32 0
  %85 = getelementptr inbounds [100 x i8], [100 x i8]* %84, i64 0, i64 0
  %86 = call i32 (i8*, ...) @printf(i8* getelementptr inbounds ([4 x i8], [4 x i8]* @.str.1, i64 0, i64 0), i8* %85)
  %87 = load %struct.stu*, %struct.stu** %3, align 8
  %88 = getelementptr inbounds %struct.stu, %struct.stu* %87, i32 0, i32 1
  %89 = load %struct.stu*, %struct.stu** %88, align 8
  store %struct.stu* %89, %struct.stu** %3, align 8
  br label %90

90:                                               ; preds = %82
  %91 = load i32, i32* %2, align 4
  %92 = add nsw i32 %91, 1
  store i32 %92, i32* %2, align 4
  br label %78

93:                                               ; preds = %78
  ret void
}

; Function Attrs: nounwind
declare dso_local noalias i8* @malloc(i64) #1

declare dso_local i32 @gets(...) #2

; Function Attrs: nounwind readonly
declare dso_local i32 @strcmp(i8*, i8*) #3

declare dso_local i32 @printf(i8*, ...) #2


!llvm.module.flags = !{!0}
!llvm.ident = !{!1}

!0 = !{i32 1, !"wchar_size", i32 4}
!1 = !{!"clang version 10.0.0-4ubuntu1 "}
